target datalayout = "e-m:e-p270:32:32-p271:32:32-p272:64:64-i64:64-i128:128-f80:128-n8:16:32:64-S128"
target triple = "x86_64-pc-linux-gnu"

%struct._cmsPipeline_struct = type { ptr, i32, i32, ptr, ptr, ptr, ptr, ptr, ptr, i32 }

; Function Attrs: nounwind uwtable
define internal i32 @_cmsQuickFloor(double noundef %0) #0 {
  %2 = alloca double, align 8
  store double %0, ptr %2, align 8
  %3 = load double, ptr %2, align 8
  %4 = call double @llvm.floor.f64(double %3)
  %5 = fptosi double %4 to i32
  ret i32 %5
}

; Function Attrs: nounwind uwtable
define internal zeroext i16 @_cmsQuickFloorWord(double noundef %0) #0 {
  %2 = alloca double, align 8
  store double %0, ptr %2, align 8
  %3 = load double, ptr %2, align 8
  %4 = fsub double %3, 3.276700e+04
  %5 = call i32 @_cmsQuickFloor(double noundef %4)
  %6 = trunc i32 %5 to i16
  %7 = zext i16 %6 to i32
  %8 = add i32 %7, 32767
  %9 = trunc i32 %8 to i16
  ret i16 %9
}

; Function Attrs: nounwind uwtable
define internal zeroext i16 @_cmsQuickSaturateWord(double noundef %0) #0 {
  %2 = alloca i16, align 2
  %3 = alloca double, align 8
  store double %0, ptr %3, align 8
  %4 = load double, ptr %3, align 8
  %5 = fadd double %4, 5.000000e-01
  store double %5, ptr %3, align 8
  %6 = load double, ptr %3, align 8
  %7 = fcmp ole double %6, 0.000000e+00
  br i1 %7, label %8, label %9

8:                                                ; preds = %1
  store i16 0, ptr %2, align 2
  br label %16

9:                                                ; preds = %1
  %10 = load double, ptr %3, align 8
  %11 = fcmp oge double %10, 6.553500e+04
  br i1 %11, label %12, label %13

12:                                               ; preds = %9
  store i16 -1, ptr %2, align 2
  br label %16

13:                                               ; preds = %9
  %14 = load double, ptr %3, align 8
  %15 = call zeroext i16 @_cmsQuickFloorWord(double noundef %14)
  store i16 %15, ptr %2, align 2
  br label %16

16:                                               ; preds = %13, %12, %8
  %17 = load i16, ptr %2, align 2
  ret i16 %17
}

; Function Attrs: nounwind uwtable
define internal i32 @XFormSampler16(ptr noundef %0, ptr noundef %1, ptr noundef %2) #0 {
  %4 = alloca ptr, align 8
  %5 = alloca ptr, align 8
  %6 = alloca ptr, align 8
  %7 = alloca ptr, align 8
  %8 = alloca [16 x float], align 16
  %9 = alloca [16 x float], align 16
  %10 = alloca i32, align 4
  store ptr %0, ptr %4, align 8
  store ptr %1, ptr %5, align 8
  store ptr %2, ptr %6, align 8
  %11 = load ptr, ptr %6, align 8
  store ptr %11, ptr %7, align 8
  store i32 0, ptr %10, align 4
  br label %12

12:                                               ; preds = %31, %3
  %13 = load i32, ptr %10, align 4
  %14 = load ptr, ptr %7, align 8
  %15 = getelementptr inbounds %struct._cmsPipeline_struct, ptr %14, i32 0, i32 1
  %16 = load i32, ptr %15, align 8
  %17 = icmp ult i32 %13, %16
  br i1 %17, label %18, label %34

18:                                               ; preds = %12
  %19 = load ptr, ptr %4, align 8
  %20 = load i32, ptr %10, align 4
  %21 = zext i32 %20 to i64
  %22 = getelementptr inbounds i16, ptr %19, i64 %21
  %23 = load i16, ptr %22, align 2
  %24 = zext i16 %23 to i32
  %25 = sitofp i32 %24 to double
  %26 = fdiv double %25, 6.553500e+04
  %27 = fptrunc double %26 to float
  %28 = load i32, ptr %10, align 4
  %29 = zext i32 %28 to i64
  %30 = getelementptr inbounds [16 x float], ptr %8, i64 0, i64 %29
  store float %27, ptr %30, align 4
  br label %31

31:                                               ; preds = %18
  %32 = load i32, ptr %10, align 4
  %33 = add i32 %32, 1
  store i32 %33, ptr %10, align 4
  br label %12, !llvm.loop !19

34:                                               ; preds = %12
  %35 = getelementptr inbounds [16 x float], ptr %8, i64 0, i64 0
  %36 = getelementptr inbounds [16 x float], ptr %9, i64 0, i64 0
  %37 = load ptr, ptr %7, align 8
  call void @cmsPipelineEvalFloat(ptr noundef %35, ptr noundef %36, ptr noundef %37)
  store i32 0, ptr %10, align 4
  br label %38

38:                                               ; preds = %56, %34
  %39 = load i32, ptr %10, align 4
  %40 = load ptr, ptr %7, align 8
  %41 = getelementptr inbounds %struct._cmsPipeline_struct, ptr %40, i32 0, i32 2
  %42 = load i32, ptr %41, align 4
  %43 = icmp ult i32 %39, %42
  br i1 %43, label %44, label %59

44:                                               ; preds = %38
  %45 = load i32, ptr %10, align 4
  %46 = zext i32 %45 to i64
  %47 = getelementptr inbounds [16 x float], ptr %9, i64 0, i64 %46
  %48 = load float, ptr %47, align 4
  %49 = fpext float %48 to double
  %50 = fmul double %49, 6.553500e+04
  %51 = call zeroext i16 @_cmsQuickSaturateWord(double noundef %50)
  %52 = load ptr, ptr %5, align 8
  %53 = load i32, ptr %10, align 4
  %54 = zext i32 %53 to i64
  %55 = getelementptr inbounds i16, ptr %52, i64 %54
  store i16 %51, ptr %55, align 2
  br label %56

56:                                               ; preds = %44
  %57 = load i32, ptr %10, align 4
  %58 = add i32 %57, 1
  store i32 %58, ptr %10, align 4
  br label %38, !llvm.loop !20

59:                                               ; preds = %38
  ret i32 1
}