; Function Attrs: nounwind uwtable
define internal noundef i32 @XFormSampler16(ptr nocapture noundef readonly %0, ptr nocapture noundef writeonly %1, ptr noundef %2) #0 {
  %4 = alloca [16 x float], align 16
  %5 = alloca [16 x float], align 16
  %6 = getelementptr inbounds i8, ptr %2, i64 8
  %7 = load i32, ptr %6, align 8
  %.not = icmp eq i32 %7, 0
  br i1 %.not, label %._crit_edge, label %.lr.ph.preheader

.lr.ph.preheader:                                 ; preds = %3
  %wide.trip.count = zext i32 %7 to i64
  br label %.lr.ph

.lr.ph:                                           ; preds = %.lr.ph.preheader, %.lr.ph
  %indvars.iv = phi i64 [ 0, %.lr.ph.preheader ], [ %indvars.iv.next, %.lr.ph ]
  %8 = getelementptr inbounds i16, ptr %0, i64 %indvars.iv
  %9 = load i16, ptr %8, align 2
  %10 = uitofp i16 %9 to double
  %11 = fdiv double %10, 6.553500e+04
  %12 = fptrunc double %11 to float
  %13 = getelementptr inbounds [16 x float], ptr %4, i64 0, i64 %indvars.iv
  store float %12, ptr %13, align 4
  %indvars.iv.next = add nuw nsw i64 %indvars.iv, 1
  %exitcond.not = icmp eq i64 %indvars.iv.next, %wide.trip.count
  br i1 %exitcond.not, label %._crit_edge, label %.lr.ph, !llvm.loop !20

._crit_edge:                                      ; preds = %.lr.ph, %3
  call void @cmsPipelineEvalFloat(ptr noundef nonnull %4, ptr noundef nonnull %5, ptr noundef nonnull %2) #10
  %14 = getelementptr inbounds i8, ptr %2, i64 12
  %15 = load i32, ptr %14, align 4
  %.not18 = icmp eq i32 %15, 0
  br i1 %.not18, label %._crit_edge17, label %.lr.ph16

.lr.ph16:                                         ; preds = %._crit_edge, %_cmsQuickSaturateWord.exit
  %indvars.iv20 = phi i64 [ %indvars.iv.next21, %_cmsQuickSaturateWord.exit ], [ 0, %._crit_edge ]
  %16 = getelementptr inbounds [16 x float], ptr %5, i64 0, i64 %indvars.iv20
  %17 = load float, ptr %16, align 4
  %18 = fpext float %17 to double
  %19 = fmul double %18, 6.553500e+04
  %20 = fadd double %19, 5.000000e-01
  %21 = fcmp ugt double %20, 0.000000e+00
  br i1 %21, label %22, label %_cmsQuickSaturateWord.exit

22:                                               ; preds = %.lr.ph16
  %23 = fcmp ult double %20, 6.553500e+04
  br i1 %23, label %24, label %_cmsQuickSaturateWord.exit

24:                                               ; preds = %22
  %25 = fadd double %20, -3.276700e+04
  %26 = call double @llvm.floor.f64(double %25)
  %27 = fptosi double %26 to i32
  %28 = trunc i32 %27 to i16
  %29 = add i16 %28, 32767
  br label %_cmsQuickSaturateWord.exit

_cmsQuickSaturateWord.exit:                       ; preds = %.lr.ph16, %22, %24
  %.0.i = phi i16 [ %29, %24 ], [ 0, %.lr.ph16 ], [ -1, %22 ]
  %30 = getelementptr inbounds i16, ptr %1, i64 %indvars.iv20
  store i16 %.0.i, ptr %30, align 2
  %indvars.iv.next21 = add nuw nsw i64 %indvars.iv20, 1
  %31 = load i32, ptr %14, align 4
  %32 = zext i32 %31 to i64
  %33 = icmp ult i64 %indvars.iv.next21, %32
  br i1 %33, label %.lr.ph16, label %._crit_edge17, !llvm.loop !21

._crit_edge17:                                    ; preds = %_cmsQuickSaturateWord.exit, %._crit_edge
  ret i32 1
}